target datalayout = "e-m:e-p270:32:32-p271:32:32-p272:64:64-i64:64-i128:128-f80:128-n8:16:32:64-S128"
target triple = "x86_64-pc-linux-gnu"

%struct.ossl_decoder_instance_st = type { ptr, ptr, ptr, ptr, i32, i8 }

; Function Attrs: nounwind uwtable
define ptr @OSSL_DECODER_INSTANCE_get_input_structure(ptr noundef %0, ptr noundef %1) #0 {
  %3 = alloca ptr, align 8
  %4 = alloca ptr, align 8
  %5 = alloca ptr, align 8
  store ptr %0, ptr %4, align 8, !tbaa !30
  store ptr %1, ptr %5, align 8, !tbaa !99
  %6 = load ptr, ptr %4, align 8, !tbaa !30
  %7 = icmp eq ptr %6, null
  br i1 %7, label %8, label %9

8:                                                ; preds = %2
  store ptr null, ptr %3, align 8
  br label %19

9:                                                ; preds = %2
  %10 = load ptr, ptr %4, align 8, !tbaa !30
  %11 = getelementptr inbounds nuw %struct.ossl_decoder_instance_st, ptr %10, i32 0, i32 5
  %12 = load i8, ptr %11, align 4
  %13 = and i8 %12, 1
  %14 = zext i8 %13 to i32
  %15 = load ptr, ptr %5, align 8, !tbaa !99
  store i32 %14, ptr %15, align 4, !tbaa !10
  %16 = load ptr, ptr %4, align 8, !tbaa !30
  %17 = getelementptr inbounds nuw %struct.ossl_decoder_instance_st, ptr %16, i32 0, i32 3
  %18 = load ptr, ptr %17, align 8, !tbaa !69
  store ptr %18, ptr %3, align 8
  br label %19

19:                                               ; preds = %9, %8
  %20 = load ptr, ptr %3, align 8
  ret ptr %20
}