; Function Attrs: mustprogress nofree norecurse nosync nounwind willreturn memory(argmem: readwrite) uwtable
define ptr @OSSL_DECODER_INSTANCE_get_input_structure(ptr noundef readonly captures(address_is_null) %0, ptr noundef writeonly captures(none) %1) local_unnamed_addr #7 {
  %3 = icmp eq ptr %0, null
  br i1 %3, label %11, label %4

4:                                                ; preds = %2
  %5 = getelementptr inbounds nuw i8, ptr %0, i64 36
  %6 = load i8, ptr %5, align 4
  %7 = and i8 %6, 1
  %8 = zext nneg i8 %7 to i32
  store i32 %8, ptr %1, align 4, !tbaa !52
  %9 = getelementptr inbounds nuw i8, ptr %0, i64 24
  %10 = load ptr, ptr %9, align 8, !tbaa !34
  br label %11

11:                                               ; preds = %2, %4
  %.0 = phi ptr [ %10, %4 ], [ null, %2 ]
  ret ptr %.0
}